ccopy_reg
_reconstructor
p0
(cperson_model
Game_pmodel
p1
c__builtin__
object
p2
Ntp3
Rp4
(dp5
S'speed'
p6
I850
sS'attack'
p7
I600
sS'profession'
p8
S'\xe6\x88\x98\xe5\xa3\xab'
p9
sS'name'
p10
S'superman'
p11
sS'blood'
p12
I3100
sb.