(dp0
S'tianshuai'
p1
(dp2
S'username'
p3
g1
sS'login_num'
p4
I0
sS'credit_money'
p5
I15000
sS'credit_card_password'
p6
S'21232f297a57a5a743894a0e4a801fc3'
p7
sS'credit_card'
p8
I666666
sS'password'
p9
g7
ssS'shuaige'
p10
(dp11
g3
g10
sg4
I0
sg5
I15000
sg6
g7
sg8
I88888888
sg9
g7
ss.