(dp0
S'88888888'
p1
(dp2
S'credit_card_password'
p3
S'21232f297a57a5a743894a0e4a801fc3'
p4
sS'mail'
p5
S'451161316@qq.com'
p6
sS'login_num'
p7
I0
sS'credit_money'
p8
I15000
ssS'666666'
p9
(dp10
g3
g4
sg5
g6
sg7
I0
sg8
I3385
ssS'tianshuai'
p11
(dp12
S'username'
p13
g11
sS'password'
p14
g4
sg7
I0
ssS'shuaige'
p15
(dp16
g13
g15
sg14
g4
sg7
I0
ss.