(dp0
I88888888
(dp1
S'credit_card_password'
p2
S'21232f297a57a5a743894a0e4a801fc3'
p3
sS'mail'
p4
S'451161316@qq.com'
p5
sS'credit_money'
p6
I15000
ssI666666
(dp7
g2
g3
sg4
g5
sg6
I15000
ssS'tianshuai'
p8
(dp9
S'username'
p10
g8
sS'login_num'
p11
I0
sS'password'
p12
g3
ssS'shuaige'
p13
(dp14
g10
g13
sg11
I0
sg12
g3
ss.