(dp0
S'tianshuai'
p1
(dp2
S'username'
p3
g1
sS'login_num'
p4
S'3'
p5
sS'credit_money'
p6
I15000
sS'credit_card_password'
p7
S'21232f297a57a5a743894a0e4a801fc3'
p8
sS'credit_card'
p9
I666666
sS'password'
p10
g8
ssS'shuaige'
p11
(dp12
g3
g11
sg4
I0
sg6
I15000
sg7
g8
sg9
I88888888
sg10
g8
ss.